(dp0
S'ifloor'
p1
(dp2
S'specf'
p3
(lp4
S'Zero'
p5
aS'One'
p6
aS'Mone'
p7
aS'Inf'
p8
aS'Minf'
p9
aS'Nan'
p10
asS'rnges'
p11
(lp12
(lp13
(lp14
S'-inf'
p15
aS'inf'
p16
aaasS'scnd_call'
p17
NssS'dist'
p18
(dp19
g3
g4
sg11
(lp20
(lp21
(lp22
g15
ag16
aag22
aasg17
NssS'idivfloor'
p23
(dp24
g3
g4
sg11
(lp25
(lp26
(lp27
g15
ag16
aag27
aasg17
NssS'sqrt1pm1'
p28
(dp29
g3
g4
sg11
(lp30
(lp31
(lp32
g15
ag16
aaasg17
NssS'hypot'
p33
(dp34
g3
g4
sg11
(lp35
(lp36
(lp37
g15
ag16
aag37
aasg17
NssS'two_add'
p38
(dp39
g3
g4
sg11
(lp40
(lp41
(lp42
g15
ag16
aag42
aasg17
NssS'idivceil'
p43
(dp44
g3
g4
sg11
(lp45
(lp46
(lp47
g15
ag16
aag47
aasg17
NssS'minusone'
p48
(dp49
g3
g4
sg11
(lp50
(lp51
(lp52
g15
ag16
aaasg17
NssS'iround'
p53
(dp54
g3
g4
sg11
(lp55
(lp56
(lp57
g15
ag16
aaasg17
NssS'oneplus'
p58
(dp59
g3
g4
sg11
(lp60
(lp61
(lp62
g15
ag16
aaasg17
NssS'logical_xor'
p63
(dp64
g3
g4
sg11
(lp65
(lp66
(lp67
g15
ag16
aag67
aasg17
NssS'floor'
p68
(dp69
g3
g4
sg11
(lp70
(lp71
(lp72
g15
ag16
aaasg17
NssS'ldivide'
p73
(dp74
g3
g4
sg11
(lp75
(lp76
(lp77
g15
ag16
aag77
aasg17
NssS'ldiv'
p78
(dp79
g3
g4
sg11
(lp80
(lp81
(lp82
g15
ag16
aag82
aasg17
NssS'fast_hypot'
p83
(dp84
g3
g4
sg11
(lp85
(lp86
(lp87
g15
ag16
aag87
aasg17
NssS'oneminus'
p88
(dp89
g3
g4
sg11
(lp90
(lp91
(lp92
g15
ag16
aaasg17
NssS'sqrt'
p93
(dp94
g3
g4
sg11
(lp95
(lp96
(lp97
g15
ag16
aaasg17
NssS'abs'
p98
(dp99
g3
g4
sg11
(lp100
(lp101
(lp102
g15
ag16
aaasg17
NssS'amul'
p103
(dp104
g3
g4
sg11
(lp105
(lp106
(lp107
g15
ag16
aag107
ag107
aasg17
NssS'rsqrt'
p108
(dp109
g3
g4
sg11
(lp110
(lp111
(lp112
g15
ag16
aaasg17
NssS'rec'
p113
(dp114
g3
g4
sg11
(lp115
(lp116
(lp117
g15
ag16
aaasg17
NssS'mod'
p118
(dp119
g3
g4
sg11
(lp120
(lp121
(lp122
g15
ag16
aag122
aasg17
NssS'correct_fma'
p123
(dp124
g3
g4
sg11
(lp125
(lp126
(lp127
g15
ag16
aag127
ag127
aasg17
NssS'fma'
p128
(dp129
g3
g4
sg11
(lp130
(lp131
(lp132
g15
ag16
aag132
ag132
aasg17
NssS'random'
p133
(dp134
g3
g4
sg11
(lp135
(lp136
(lp137
g15
ag16
aag137
aasg17
NssS'max'
p138
(dp139
g3
g4
sg11
(lp140
(lp141
(lp142
g15
ag16
aag142
aasg17
NssS'arg'
p143
(dp144
g3
g4
sg11
(lp145
(lp146
(lp147
g15
ag16
aaasg17
NssS'rem'
p148
(dp149
g3
g4
sg11
(lp150
(lp151
(lp152
g15
ag16
aag152
aasg17
NssS'idivfix'
p153
(dp154
g3
g4
sg11
(lp155
(lp156
(lp157
g15
ag16
aag157
aasg17
NssS'ceil'
p158
(dp159
g3
g4
sg11
(lp160
(lp161
(lp162
g15
ag16
aaasg17
NssS'sqr'
p163
(dp164
g3
g4
sg11
(lp165
(lp166
(lp167
g15
ag16
aaasg17
NssS'rdivide'
p168
(dp169
g3
g4
sg11
(lp170
(lp171
(lp172
g15
ag16
aag172
aasg17
NssS'fam'
p173
(dp174
g3
g4
sg11
(lp175
(lp176
(lp177
g15
ag16
aag177
ag177
aasg17
NssS'idivround'
p178
(dp179
g3
g4
sg11
(lp180
(lp181
(lp182
g15
ag16
aag182
aasg17
NssS'remainder'
p183
(dp184
g3
g4
sg11
(lp185
(lp186
(lp187
g15
ag16
aag187
aasg17
NssS'iround2even'
p188
(dp189
g3
g4
sg11
(lp190
(lp191
(lp192
g15
ag16
aaasg17
NssS'trunc'
p193
(dp194
g3
g4
sg11
(lp195
(lp196
(lp197
g15
ag16
aaasg17
NssS'madd'
p198
(dp199
g3
g4
sg11
(lp200
(lp201
(lp202
g15
ag16
aag202
ag202
aasg17
NssS'iceil'
p203
(dp204
g3
g4
sg11
(lp205
(lp206
(lp207
g15
ag16
aaasg17
NssS'minmod'
p208
(dp209
g3
g4
sg11
(lp210
(lp211
(lp212
g15
ag16
aag212
aasg17
NssS'average'
p213
(dp214
g3
g4
sg11
(lp215
(lp216
(lp217
g15
ag16
aag217
aasg17
NssS'min'
p218
(dp219
g3
g4
sg11
(lp220
(lp221
(lp222
g15
ag16
aag222
aasg17
NssS'two_split'
p223
(dp224
g3
g4
sg11
(lp225
(lp226
(lp227
g15
ag16
aaasg17
NssS'two_prod'
p228
(dp229
g3
g4
sg11
(lp230
(lp231
(lp232
g15
ag16
aag232
aasg17
NssS'remquo'
p233
(dp234
g3
g4
sg11
(lp235
(lp236
(lp237
g15
ag16
aag237
aasg17
NssS'round'
p238
(dp239
g3
g4
sg11
(lp240
(lp241
(lp242
g15
ag16
aaasg17
Nss.